; Function Attrs: nounwind sspstrong uwtable
define dso_local void @qemu_semihosting_console_block_until_ready(ptr noundef %cs) local_unnamed_addr #0 {
entry:
  %call = tail call zeroext i1 @qemu_mutex_iothread_locked() #5
  br i1 %call, label %do.end, label %if.else

if.else:                                          ; preds = %entry
  tail call void @g_assertion_message_expr(ptr noundef null, ptr noundef nonnull @.str, i32 noundef 81, ptr noundef nonnull @__func__.qemu_semihosting_console_block_until_ready, ptr noundef nonnull @.str.1) #6
  unreachable

do.end:                                           ; preds = %entry
  %call1 = tail call zeroext i1 @fifo8_is_empty(ptr noundef nonnull getelementptr inbounds nuw (i8, ptr @console, i64 80)) #5
  br i1 %call1, label %if.then2, label %if.end5

if.then2:                                         ; preds = %do.end
  %0 = load ptr, ptr getelementptr inbounds nuw (i8, ptr @console, i64 64), align 8
  %call3 = tail call ptr @g_slist_prepend(ptr noundef %0, ptr noundef %cs) #5
  store ptr %call3, ptr getelementptr inbounds nuw (i8, ptr @console, i64 64), align 8
  %halted = getelementptr inbounds nuw i8, ptr %cs, i64 724
  store i32 1, ptr %halted, align 4
  %exception_index = getelementptr inbounds nuw i8, ptr %cs, i64 728
  store i32 65539, ptr %exception_index, align 8
  tail call void @cpu_loop_exit(ptr noundef %cs) #6
  unreachable

if.end5:                                          ; preds = %do.end
  ret void
}